target datalayout = "e-m:e-p270:32:32-p271:32:32-p272:64:64-i64:64-i128:128-f80:128-n8:16:32:64-S128"
target triple = "x86_64-pc-linux-gnu"

%struct.ossl_quic_frame_stream_st = type { i64, i64, i64, ptr, i8 }
%struct.PACKET = type { ptr, i64 }

; Function Attrs: inlinehint nounwind uwtable
define internal void @packet_forward(ptr noundef %0, i64 noundef %1) #3 {
  %3 = alloca ptr, align 8
  %4 = alloca i64, align 8
  store ptr %0, ptr %3, align 8, !tbaa !75
  store i64 %1, ptr %4, align 8, !tbaa !8
  %5 = load i64, ptr %4, align 8, !tbaa !8
  %6 = load ptr, ptr %3, align 8, !tbaa !75
  %7 = getelementptr inbounds nuw %struct.PACKET, ptr %6, i32 0, i32 0
  %8 = load ptr, ptr %7, align 8, !tbaa !80
  %9 = getelementptr inbounds nuw i8, ptr %8, i64 %5
  store ptr %9, ptr %7, align 8, !tbaa !80
  %10 = load i64, ptr %4, align 8, !tbaa !8
  %11 = load ptr, ptr %3, align 8, !tbaa !75
  %12 = getelementptr inbounds nuw %struct.PACKET, ptr %11, i32 0, i32 1
  %13 = load i64, ptr %12, align 8, !tbaa !85
  %14 = sub i64 %13, %10
  store i64 %14, ptr %12, align 8, !tbaa !85
  ret void
}

; Function Attrs: inlinehint nounwind uwtable
define internal i64 @ossl_quic_vlint_decode_len(i8 noundef zeroext %0) #3 {
  %2 = alloca i8, align 1
  store i8 %0, ptr %2, align 1, !tbaa !56
  %3 = load i8, ptr %2, align 1, !tbaa !56
  %4 = zext i8 %3 to i32
  %5 = and i32 %4, 192
  %6 = ashr i32 %5, 6
  %7 = shl i32 1, %6
  %8 = zext i32 %7 to i64
  ret i64 %8
}

; Function Attrs: nounwind uwtable
define i32 @ossl_quic_wire_skip_frame_header(ptr noundef %0, ptr noundef %1) #0 {
  %3 = alloca ptr, align 8
  %4 = alloca ptr, align 8
  store ptr %0, ptr %3, align 8, !tbaa !75
  store ptr %1, ptr %4, align 8, !tbaa !76
  %5 = load ptr, ptr %3, align 8, !tbaa !75
  %6 = load ptr, ptr %4, align 8, !tbaa !76
  %7 = call i32 @PACKET_get_quic_vlint(ptr noundef %5, ptr noundef %6)
  ret i32 %7
}

; Function Attrs: inlinehint nounwind uwtable
define internal i32 @PACKET_forward(ptr noundef %0, i64 noundef %1) #3 {
  %3 = alloca i32, align 4
  %4 = alloca ptr, align 8
  %5 = alloca i64, align 8
  store ptr %0, ptr %4, align 8, !tbaa !75
  store i64 %1, ptr %5, align 8, !tbaa !8
  %6 = load ptr, ptr %4, align 8, !tbaa !75
  %7 = call i64 @PACKET_remaining(ptr noundef %6)
  %8 = load i64, ptr %5, align 8, !tbaa !8
  %9 = icmp ult i64 %7, %8
  br i1 %9, label %10, label %11

10:                                               ; preds = %2
  store i32 0, ptr %3, align 4
  br label %14

11:                                               ; preds = %2
  %12 = load ptr, ptr %4, align 8, !tbaa !75
  %13 = load i64, ptr %5, align 8, !tbaa !8
  call void @packet_forward(ptr noundef %12, i64 noundef %13)
  store i32 1, ptr %3, align 4
  br label %14

14:                                               ; preds = %11, %10
  %15 = load i32, ptr %3, align 4
  ret i32 %15
}

; Function Attrs: inlinehint nounwind uwtable
define internal ptr @PACKET_data(ptr noundef %0) #3 {
  %2 = alloca ptr, align 8
  store ptr %0, ptr %2, align 8, !tbaa !75
  %3 = load ptr, ptr %2, align 8, !tbaa !75
  %4 = getelementptr inbounds nuw %struct.PACKET, ptr %3, i32 0, i32 0
  %5 = load ptr, ptr %4, align 8, !tbaa !80
  ret ptr %5
}

; Function Attrs: inlinehint nounwind uwtable
define internal i64 @PACKET_remaining(ptr noundef %0) #3 {
  %2 = alloca ptr, align 8
  store ptr %0, ptr %2, align 8, !tbaa !75
  %3 = load ptr, ptr %2, align 8, !tbaa !75
  %4 = getelementptr inbounds nuw %struct.PACKET, ptr %3, i32 0, i32 1
  %5 = load i64, ptr %4, align 8, !tbaa !85
  ret i64 %5
}

; Function Attrs: inlinehint nounwind uwtable
define internal i32 @PACKET_get_quic_vlint(ptr noundef %0, ptr noundef %1) #3 {
  %3 = alloca i32, align 4
  %4 = alloca ptr, align 8
  %5 = alloca ptr, align 8
  %6 = alloca i64, align 8
  %7 = alloca i32, align 4
  store ptr %0, ptr %4, align 8, !tbaa !75
  store ptr %1, ptr %5, align 8, !tbaa !76
  call void @llvm.lifetime.start.p0(i64 8, ptr %6) #7
  %8 = load ptr, ptr %4, align 8, !tbaa !75
  %9 = call i64 @PACKET_remaining(ptr noundef %8)
  %10 = icmp ult i64 %9, 1
  br i1 %10, label %11, label %12

11:                                               ; preds = %2
  store i32 0, ptr %3, align 4
  store i32 1, ptr %7, align 4
  br label %31

12:                                               ; preds = %2
  %13 = load ptr, ptr %4, align 8, !tbaa !75
  %14 = getelementptr inbounds nuw %struct.PACKET, ptr %13, i32 0, i32 0
  %15 = load ptr, ptr %14, align 8, !tbaa !80
  %16 = load i8, ptr %15, align 1, !tbaa !56
  %17 = call i64 @ossl_quic_vlint_decode_len(i8 noundef zeroext %16)
  store i64 %17, ptr %6, align 8, !tbaa !8
  %18 = load ptr, ptr %4, align 8, !tbaa !75
  %19 = call i64 @PACKET_remaining(ptr noundef %18)
  %20 = load i64, ptr %6, align 8, !tbaa !8
  %21 = icmp ult i64 %19, %20
  br i1 %21, label %22, label %23

22:                                               ; preds = %12
  store i32 0, ptr %3, align 4
  store i32 1, ptr %7, align 4
  br label %31

23:                                               ; preds = %12
  %24 = load ptr, ptr %4, align 8, !tbaa !75
  %25 = getelementptr inbounds nuw %struct.PACKET, ptr %24, i32 0, i32 0
  %26 = load ptr, ptr %25, align 8, !tbaa !80
  %27 = call i64 @ossl_quic_vlint_decode_unchecked(ptr noundef %26)
  %28 = load ptr, ptr %5, align 8, !tbaa !76
  store i64 %27, ptr %28, align 8, !tbaa !8
  %29 = load ptr, ptr %4, align 8, !tbaa !75
  %30 = load i64, ptr %6, align 8, !tbaa !8
  call void @packet_forward(ptr noundef %29, i64 noundef %30)
  store i32 1, ptr %3, align 4
  store i32 1, ptr %7, align 4
  br label %31

31:                                               ; preds = %23, %22, %11
  call void @llvm.lifetime.end.p0(i64 8, ptr %6) #7
  %32 = load i32, ptr %3, align 4
  ret i32 %32
}

; Function Attrs: nounwind uwtable
define internal i32 @expect_frame_header_mask(ptr noundef %0, i64 noundef %1, i64 noundef %2, ptr noundef %3) #0 {
  %5 = alloca i32, align 4
  %6 = alloca ptr, align 8
  %7 = alloca i64, align 8
  %8 = alloca i64, align 8
  %9 = alloca ptr, align 8
  %10 = alloca i64, align 8
  %11 = alloca i32, align 4
  store ptr %0, ptr %6, align 8, !tbaa !75
  store i64 %1, ptr %7, align 8, !tbaa !8
  store i64 %2, ptr %8, align 8, !tbaa !8
  store ptr %3, ptr %9, align 8, !tbaa !76
  call void @llvm.lifetime.start.p0(i64 8, ptr %10) #7
  %12 = load ptr, ptr %6, align 8, !tbaa !75
  %13 = call i32 @ossl_quic_wire_skip_frame_header(ptr noundef %12, ptr noundef %10)
  %14 = icmp ne i32 %13, 0
  br i1 %14, label %15, label %22

15:                                               ; preds = %4
  %16 = load i64, ptr %10, align 8, !tbaa !8
  %17 = load i64, ptr %8, align 8, !tbaa !8
  %18 = xor i64 %17, -1
  %19 = and i64 %16, %18
  %20 = load i64, ptr %7, align 8, !tbaa !8
  %21 = icmp ne i64 %19, %20
  br i1 %21, label %22, label %23

22:                                               ; preds = %15, %4
  store i32 0, ptr %5, align 4
  store i32 1, ptr %11, align 4
  br label %30

23:                                               ; preds = %15
  %24 = load ptr, ptr %9, align 8, !tbaa !76
  %25 = icmp ne ptr %24, null
  br i1 %25, label %26, label %29

26:                                               ; preds = %23
  %27 = load i64, ptr %10, align 8, !tbaa !8
  %28 = load ptr, ptr %9, align 8, !tbaa !76
  store i64 %27, ptr %28, align 8, !tbaa !8
  br label %29

29:                                               ; preds = %26, %23
  store i32 1, ptr %5, align 4
  store i32 1, ptr %11, align 4
  br label %30

30:                                               ; preds = %29, %22
  call void @llvm.lifetime.end.p0(i64 8, ptr %10) #7
  %31 = load i32, ptr %5, align 4
  ret i32 %31
}

; Function Attrs: nounwind uwtable
define i32 @ossl_quic_wire_decode_frame_stream(ptr noundef %0, i32 noundef %1, ptr noundef %2) #0 {
  %4 = alloca i32, align 4
  %5 = alloca ptr, align 8
  %6 = alloca i32, align 4
  %7 = alloca ptr, align 8
  %8 = alloca i64, align 8
  %9 = alloca i32, align 4
  store ptr %0, ptr %5, align 8, !tbaa !75
  store i32 %1, ptr %6, align 4, !tbaa !23
  store ptr %2, ptr %7, align 8, !tbaa !49
  call void @llvm.lifetime.start.p0(i64 8, ptr %8) #7
  %10 = load ptr, ptr %5, align 8, !tbaa !75
  %11 = call i32 @expect_frame_header_mask(ptr noundef %10, i64 noundef 8, i64 noundef 7, ptr noundef %8)
  %12 = icmp ne i32 %11, 0
  br i1 %12, label %13, label %19

13:                                               ; preds = %3
  %14 = load ptr, ptr %5, align 8, !tbaa !75
  %15 = load ptr, ptr %7, align 8, !tbaa !49
  %16 = getelementptr inbounds nuw %struct.ossl_quic_frame_stream_st, ptr %15, i32 0, i32 0
  %17 = call i32 @PACKET_get_quic_vlint(ptr noundef %14, ptr noundef %16)
  %18 = icmp ne i32 %17, 0
  br i1 %18, label %20, label %19

19:                                               ; preds = %13, %3
  store i32 0, ptr %4, align 4
  store i32 1, ptr %9, align 4
  br label %120

20:                                               ; preds = %13
  %21 = load i64, ptr %8, align 8, !tbaa !8
  %22 = and i64 %21, 4
  %23 = icmp ne i64 %22, 0
  br i1 %23, label %24, label %32

24:                                               ; preds = %20
  %25 = load ptr, ptr %5, align 8, !tbaa !75
  %26 = load ptr, ptr %7, align 8, !tbaa !49
  %27 = getelementptr inbounds nuw %struct.ossl_quic_frame_stream_st, ptr %26, i32 0, i32 1
  %28 = call i32 @PACKET_get_quic_vlint(ptr noundef %25, ptr noundef %27)
  %29 = icmp ne i32 %28, 0
  br i1 %29, label %31, label %30

30:                                               ; preds = %24
  store i32 0, ptr %4, align 4
  store i32 1, ptr %9, align 4
  br label %120

31:                                               ; preds = %24
  br label %35

32:                                               ; preds = %20
  %33 = load ptr, ptr %7, align 8, !tbaa !49
  %34 = getelementptr inbounds nuw %struct.ossl_quic_frame_stream_st, ptr %33, i32 0, i32 1
  store i64 0, ptr %34, align 8, !tbaa !51
  br label %35

35:                                               ; preds = %32, %31
  %36 = load i64, ptr %8, align 8, !tbaa !8
  %37 = and i64 %36, 2
  %38 = icmp ne i64 %37, 0
  %39 = zext i1 %38 to i32
  %40 = load ptr, ptr %7, align 8, !tbaa !49
  %41 = getelementptr inbounds nuw %struct.ossl_quic_frame_stream_st, ptr %40, i32 0, i32 4
  %42 = trunc i32 %39 to i8
  %43 = load i8, ptr %41, align 8
  %44 = and i8 %42, 1
  %45 = and i8 %43, -2
  %46 = or i8 %45, %44
  store i8 %46, ptr %41, align 8
  %47 = load i64, ptr %8, align 8, !tbaa !8
  %48 = and i64 %47, 1
  %49 = icmp ne i64 %48, 0
  %50 = zext i1 %49 to i32
  %51 = load ptr, ptr %7, align 8, !tbaa !49
  %52 = getelementptr inbounds nuw %struct.ossl_quic_frame_stream_st, ptr %51, i32 0, i32 4
  %53 = trunc i32 %50 to i8
  %54 = load i8, ptr %52, align 8
  %55 = and i8 %53, 1
  %56 = shl i8 %55, 1
  %57 = and i8 %54, -3
  %58 = or i8 %57, %56
  store i8 %58, ptr %52, align 8
  %59 = load ptr, ptr %7, align 8, !tbaa !49
  %60 = getelementptr inbounds nuw %struct.ossl_quic_frame_stream_st, ptr %59, i32 0, i32 4
  %61 = load i8, ptr %60, align 8
  %62 = and i8 %61, 1
  %63 = zext i8 %62 to i32
  %64 = icmp ne i32 %63, 0
  br i1 %64, label %65, label %73

65:                                               ; preds = %35
  %66 = load ptr, ptr %5, align 8, !tbaa !75
  %67 = load ptr, ptr %7, align 8, !tbaa !49
  %68 = getelementptr inbounds nuw %struct.ossl_quic_frame_stream_st, ptr %67, i32 0, i32 2
  %69 = call i32 @PACKET_get_quic_vlint(ptr noundef %66, ptr noundef %68)
  %70 = icmp ne i32 %69, 0
  br i1 %70, label %72, label %71

71:                                               ; preds = %65
  store i32 0, ptr %4, align 4
  store i32 1, ptr %9, align 4
  br label %120

72:                                               ; preds = %65
  br label %85

73:                                               ; preds = %35
  %74 = load i32, ptr %6, align 4, !tbaa !23
  %75 = icmp ne i32 %74, 0
  br i1 %75, label %76, label %79

76:                                               ; preds = %73
  %77 = load ptr, ptr %7, align 8, !tbaa !49
  %78 = getelementptr inbounds nuw %struct.ossl_quic_frame_stream_st, ptr %77, i32 0, i32 2
  store i64 0, ptr %78, align 8, !tbaa !54
  br label %84

79:                                               ; preds = %73
  %80 = load ptr, ptr %5, align 8, !tbaa !75
  %81 = call i64 @PACKET_remaining(ptr noundef %80)
  %82 = load ptr, ptr %7, align 8, !tbaa !49
  %83 = getelementptr inbounds nuw %struct.ossl_quic_frame_stream_st, ptr %82, i32 0, i32 2
  store i64 %81, ptr %83, align 8, !tbaa !54
  br label %84

84:                                               ; preds = %79, %76
  br label %85

85:                                               ; preds = %84, %72
  %86 = load ptr, ptr %7, align 8, !tbaa !49
  %87 = getelementptr inbounds nuw %struct.ossl_quic_frame_stream_st, ptr %86, i32 0, i32 1
  %88 = load i64, ptr %87, align 8, !tbaa !51
  %89 = load ptr, ptr %7, align 8, !tbaa !49
  %90 = getelementptr inbounds nuw %struct.ossl_quic_frame_stream_st, ptr %89, i32 0, i32 2
  %91 = load i64, ptr %90, align 8, !tbaa !54
  %92 = add i64 %88, %91
  %93 = icmp ugt i64 %92, 4611686018427387903
  br i1 %93, label %94, label %95

94:                                               ; preds = %85
  store i32 0, ptr %4, align 4
  store i32 1, ptr %9, align 4
  br label %120

95:                                               ; preds = %85
  %96 = load i32, ptr %6, align 4, !tbaa !23
  %97 = icmp ne i32 %96, 0
  br i1 %97, label %98, label %101

98:                                               ; preds = %95
  %99 = load ptr, ptr %7, align 8, !tbaa !49
  %100 = getelementptr inbounds nuw %struct.ossl_quic_frame_stream_st, ptr %99, i32 0, i32 3
  store ptr null, ptr %100, align 8, !tbaa !55
  br label %119

101:                                              ; preds = %95
  %102 = load ptr, ptr %5, align 8, !tbaa !75
  %103 = call ptr @PACKET_data(ptr noundef %102)
  %104 = load ptr, ptr %7, align 8, !tbaa !49
  %105 = getelementptr inbounds nuw %struct.ossl_quic_frame_stream_st, ptr %104, i32 0, i32 3
  store ptr %103, ptr %105, align 8, !tbaa !55
  %106 = load ptr, ptr %7, align 8, !tbaa !49
  %107 = getelementptr inbounds nuw %struct.ossl_quic_frame_stream_st, ptr %106, i32 0, i32 2
  %108 = load i64, ptr %107, align 8, !tbaa !54
  %109 = icmp ugt i64 %108, -1
  br i1 %109, label %117, label %110

110:                                              ; preds = %101
  %111 = load ptr, ptr %5, align 8, !tbaa !75
  %112 = load ptr, ptr %7, align 8, !tbaa !49
  %113 = getelementptr inbounds nuw %struct.ossl_quic_frame_stream_st, ptr %112, i32 0, i32 2
  %114 = load i64, ptr %113, align 8, !tbaa !54
  %115 = call i32 @PACKET_forward(ptr noundef %111, i64 noundef %114)
  %116 = icmp ne i32 %115, 0
  br i1 %116, label %118, label %117

117:                                              ; preds = %110, %101
  store i32 0, ptr %4, align 4
  store i32 1, ptr %9, align 4
  br label %120

118:                                              ; preds = %110
  br label %119

119:                                              ; preds = %118, %98
  store i32 1, ptr %4, align 4
  store i32 1, ptr %9, align 4
  br label %120

120:                                              ; preds = %119, %117, %94, %71, %30, %19
  call void @llvm.lifetime.end.p0(i64 8, ptr %8) #7
  %121 = load i32, ptr %4, align 4
  ret i32 %121
}