; Function Attrs: nounwind uwtable
define range(i32 0, 2) i32 @ossl_quic_wire_decode_frame_stream(ptr noundef captures(none) %0, i32 noundef %1, ptr noundef captures(none) %2) local_unnamed_addr #2 {
  %4 = getelementptr i8, ptr %0, i64 8
  %.val.i.i.i = load i64, ptr %4, align 8, !tbaa !52
  %5 = icmp eq i64 %.val.i.i.i, 0
  br i1 %5, label %expect_frame_header_mask.exit.thread, label %6

6:                                                ; preds = %3
  %7 = load ptr, ptr %0, align 8, !tbaa !54
  %8 = load i8, ptr %7, align 1, !tbaa !55
  %9 = lshr i8 %8, 6
  %10 = zext nneg i8 %9 to i32
  %11 = shl nuw nsw i32 1, %10
  %12 = zext nneg i32 %11 to i64
  %13 = icmp ult i64 %.val.i.i.i, %12
  br i1 %13, label %expect_frame_header_mask.exit.thread, label %14

14:                                               ; preds = %6
  %15 = tail call i64 @ossl_quic_vlint_decode_unchecked(ptr noundef nonnull %7) #12
  %16 = load ptr, ptr %0, align 8, !tbaa !54
  %17 = getelementptr inbounds nuw i8, ptr %16, i64 %12
  store ptr %17, ptr %0, align 8, !tbaa !54
  %18 = load i64, ptr %4, align 8, !tbaa !52
  %19 = sub i64 %18, %12
  store i64 %19, ptr %4, align 8, !tbaa !52
  %20 = and i64 %15, -8
  %.not6.i = icmp ne i64 %20, 8
  %21 = icmp eq i64 %18, %12
  %or.cond = select i1 %.not6.i, i1 true, i1 %21
  br i1 %or.cond, label %expect_frame_header_mask.exit.thread, label %22

22:                                               ; preds = %14
  %23 = load i8, ptr %17, align 1, !tbaa !55
  %24 = lshr i8 %23, 6
  %25 = zext nneg i8 %24 to i32
  %26 = shl nuw nsw i32 1, %25
  %27 = zext nneg i32 %26 to i64
  %28 = icmp ult i64 %19, %27
  br i1 %28, label %expect_frame_header_mask.exit.thread, label %29

29:                                               ; preds = %22
  %30 = tail call i64 @ossl_quic_vlint_decode_unchecked(ptr noundef nonnull %17) #12
  store i64 %30, ptr %2, align 8, !tbaa !56
  %31 = load ptr, ptr %0, align 8, !tbaa !54
  %32 = getelementptr inbounds nuw i8, ptr %31, i64 %27
  store ptr %32, ptr %0, align 8, !tbaa !54
  %33 = load i64, ptr %4, align 8, !tbaa !52
  %34 = sub i64 %33, %27
  store i64 %34, ptr %4, align 8, !tbaa !52
  %35 = and i64 %15, 4
  %.not25 = icmp eq i64 %35, 0
  %36 = getelementptr inbounds nuw i8, ptr %2, i64 8
  br i1 %.not25, label %51, label %37

37:                                               ; preds = %29
  %38 = icmp eq i64 %33, %27
  br i1 %38, label %expect_frame_header_mask.exit.thread, label %39

39:                                               ; preds = %37
  %40 = load i8, ptr %32, align 1, !tbaa !55
  %41 = lshr i8 %40, 6
  %42 = zext nneg i8 %41 to i32
  %43 = shl nuw nsw i32 1, %42
  %44 = zext nneg i32 %43 to i64
  %45 = icmp ult i64 %34, %44
  br i1 %45, label %expect_frame_header_mask.exit.thread, label %PACKET_get_quic_vlint.exit36

PACKET_get_quic_vlint.exit36:                     ; preds = %39
  %46 = tail call i64 @ossl_quic_vlint_decode_unchecked(ptr noundef nonnull %32) #12
  store i64 %46, ptr %36, align 8, !tbaa !56
  %47 = load ptr, ptr %0, align 8, !tbaa !54
  %48 = getelementptr inbounds nuw i8, ptr %47, i64 %44
  store ptr %48, ptr %0, align 8, !tbaa !54
  %49 = load i64, ptr %4, align 8, !tbaa !52
  %50 = sub i64 %49, %44
  store i64 %50, ptr %4, align 8, !tbaa !52
  br label %52

51:                                               ; preds = %29
  store i64 0, ptr %36, align 8, !tbaa !35
  br label %52

52:                                               ; preds = %PACKET_get_quic_vlint.exit36, %51
  %53 = phi i64 [ %46, %PACKET_get_quic_vlint.exit36 ], [ 0, %51 ]
  %54 = getelementptr inbounds nuw i8, ptr %2, i64 32
  %55 = load i8, ptr %54, align 8
  %56 = and i8 %55, -4
  %trunc = trunc i64 %15 to i2
  %rev = tail call i2 @llvm.bitreverse.i2(i2 %trunc)
  %57 = zext i2 %rev to i8
  %58 = or disjoint i8 %56, %57
  store i8 %58, ptr %54, align 8
  %59 = and i64 %15, 2
  %.not27 = icmp eq i64 %59, 0
  br i1 %.not27, label %76, label %60

60:                                               ; preds = %52
  %61 = getelementptr inbounds nuw i8, ptr %2, i64 16
  %.val.i37 = load i64, ptr %4, align 8, !tbaa !52
  %62 = icmp eq i64 %.val.i37, 0
  br i1 %62, label %expect_frame_header_mask.exit.thread, label %63

63:                                               ; preds = %60
  %64 = load ptr, ptr %0, align 8, !tbaa !54
  %65 = load i8, ptr %64, align 1, !tbaa !55
  %66 = lshr i8 %65, 6
  %67 = zext nneg i8 %66 to i32
  %68 = shl nuw nsw i32 1, %67
  %69 = zext nneg i32 %68 to i64
  %70 = icmp ult i64 %.val.i37, %69
  br i1 %70, label %expect_frame_header_mask.exit.thread, label %PACKET_get_quic_vlint.exit39

PACKET_get_quic_vlint.exit39:                     ; preds = %63
  %71 = tail call i64 @ossl_quic_vlint_decode_unchecked(ptr noundef nonnull %64) #12
  store i64 %71, ptr %61, align 8, !tbaa !56
  %72 = load ptr, ptr %0, align 8, !tbaa !54
  %73 = getelementptr inbounds nuw i8, ptr %72, i64 %69
  store ptr %73, ptr %0, align 8, !tbaa !54
  %74 = load i64, ptr %4, align 8, !tbaa !52
  %75 = sub i64 %74, %69
  store i64 %75, ptr %4, align 8, !tbaa !52
  %.phi.trans.insert = getelementptr inbounds nuw i8, ptr %2, i64 8
  %.pre = load i64, ptr %.phi.trans.insert, align 8, !tbaa !35
  br label %79

76:                                               ; preds = %52
  %.not28 = icmp eq i32 %1, 0
  br i1 %.not28, label %.thread, label %77

77:                                               ; preds = %76
  %78 = getelementptr inbounds nuw i8, ptr %2, i64 16
  store i64 0, ptr %78, align 8, !tbaa !38
  br label %79

79:                                               ; preds = %PACKET_get_quic_vlint.exit39, %77
  %80 = phi i64 [ %71, %PACKET_get_quic_vlint.exit39 ], [ 0, %77 ]
  %81 = phi i64 [ %.pre, %PACKET_get_quic_vlint.exit39 ], [ %53, %77 ]
  %82 = add i64 %80, %81
  %83 = icmp ugt i64 %82, 4611686018427387903
  br i1 %83, label %expect_frame_header_mask.exit.thread, label %88

.thread:                                          ; preds = %76
  %.val = load i64, ptr %4, align 8, !tbaa !52
  %84 = getelementptr inbounds nuw i8, ptr %2, i64 16
  store i64 %.val, ptr %84, align 8, !tbaa !38
  %85 = add i64 %53, %.val
  %86 = icmp ugt i64 %85, 4611686018427387903
  br i1 %86, label %expect_frame_header_mask.exit.thread, label %.thread54.thread

.thread54.thread:                                 ; preds = %.thread
  %.val3260 = load ptr, ptr %0, align 8, !tbaa !54
  %87 = getelementptr inbounds nuw i8, ptr %2, i64 24
  store ptr %.val3260, ptr %87, align 8, !tbaa !39
  br label %PACKET_forward.exit

88:                                               ; preds = %79
  %.not30 = icmp eq i32 %1, 0
  br i1 %.not30, label %.thread54, label %89

89:                                               ; preds = %88
  %90 = getelementptr inbounds nuw i8, ptr %2, i64 24
  store ptr null, ptr %90, align 8, !tbaa !39
  br label %expect_frame_header_mask.exit.thread

.thread54:                                        ; preds = %88
  %.val.i40.pre = load i64, ptr %4, align 8, !tbaa !52
  %.val32 = load ptr, ptr %0, align 8, !tbaa !54
  %91 = getelementptr inbounds nuw i8, ptr %2, i64 24
  store ptr %.val32, ptr %91, align 8, !tbaa !39
  %92 = icmp ult i64 %.val.i40.pre, %80
  br i1 %92, label %expect_frame_header_mask.exit.thread, label %PACKET_forward.exit

PACKET_forward.exit:                              ; preds = %.thread54.thread, %.thread54
  %.val3262 = phi ptr [ %.val3260, %.thread54.thread ], [ %.val32, %.thread54 ]
  %93 = phi i64 [ %.val, %.thread54.thread ], [ %80, %.thread54 ]
  %.val.i4061 = phi i64 [ %.val, %.thread54.thread ], [ %.val.i40.pre, %.thread54 ]
  %94 = getelementptr inbounds nuw i8, ptr %.val3262, i64 %93
  store ptr %94, ptr %0, align 8, !tbaa !54
  %95 = sub nuw i64 %.val.i4061, %93
  store i64 %95, ptr %4, align 8, !tbaa !52
  br label %expect_frame_header_mask.exit.thread

expect_frame_header_mask.exit.thread:             ; preds = %.thread54, %63, %60, %39, %37, %22, %6, %3, %14, %89, %PACKET_forward.exit, %.thread, %79
  %.0 = phi i32 [ 0, %79 ], [ 0, %.thread ], [ 1, %PACKET_forward.exit ], [ 1, %89 ], [ 0, %14 ], [ 0, %3 ], [ 0, %6 ], [ 0, %22 ], [ 0, %37 ], [ 0, %39 ], [ 0, %60 ], [ 0, %63 ], [ 0, %.thread54 ]
  ret i32 %.0
}